target datalayout = "e-m:e-p270:32:32-p271:32:32-p272:64:64-i64:64-i128:128-f80:128-n8:16:32:64-S128"
target triple = "x86_64-pc-linux-gnu"

%"class.Json::Value" = type { %"union.Json::Value::ValueHolder", %struct.anon, %"class.Json::Value::Comments", i64, i64 }
%"union.Json::Value::ValueHolder" = type { i64 }
%struct.anon = type { i16, [2 x i8] }
%"class.Json::Value::Comments" = type { %"class.std::unique_ptr.3" }
%"class.std::unique_ptr.3" = type { %"struct.std::__uniq_ptr_data.4" }
%"struct.std::__uniq_ptr_data.4" = type { %"class.std::__uniq_ptr_impl.5" }
%"class.std::__uniq_ptr_impl.5" = type { %"class.std::tuple.6" }
%"class.std::tuple.6" = type { %"struct.std::_Tuple_impl.7" }
%"struct.std::_Tuple_impl.7" = type { %"struct.std::_Head_base.10" }
%"struct.std::_Head_base.10" = type { ptr }
%"class.std::optional" = type { %"struct.std::_Optional_base" }
%"struct.std::_Optional_base" = type { %"struct.std::_Optional_payload" }
%"struct.std::_Optional_payload" = type { %"struct.std::_Optional_payload.base", [7 x i8] }
%"struct.std::_Optional_payload.base" = type { %"struct.std::_Optional_payload_base.base" }
%"struct.std::_Optional_payload_base.base" = type <{ %"union.std::_Optional_payload_base<Json::Value>::_Storage", i8 }>
%"union.std::_Optional_payload_base<Json::Value>::_Storage" = type { %"class.Json::Value" }
%"class.cmMakefileProfilingData::RAII" = type { ptr }
%"struct.std::_Optional_payload_base" = type <{ %"union.std::_Optional_payload_base<Json::Value>::_Storage", i8, [7 x i8] }>

; Function Attrs: inlinehint mustprogress nounwind uwtable
define linkonce_odr dso_local void @_ZSt10_ConstructIN4Json5ValueEJS1_EEvPT_DpOT0_(ptr noundef %0, ptr noundef nonnull align 8 dereferenceable(40) %1) #7 comdat {
  %3 = alloca ptr, align 8
  %4 = alloca ptr, align 8
  store ptr %0, ptr %3, align 8, !tbaa !102
  store ptr %1, ptr %4, align 8, !tbaa !102
  %5 = load ptr, ptr %3, align 8, !tbaa !102
  %6 = load ptr, ptr %4, align 8, !tbaa !102
  call void @_ZN4Json5ValueC1EOS0_(ptr noundef nonnull align 8 dereferenceable(40) %5, ptr noundef nonnull align 8 dereferenceable(40) %6) #3
  ret void
}

; Function Attrs: mustprogress nounwind uwtable
define linkonce_odr dso_local void @_ZNSt22_Optional_payload_baseIN4Json5ValueEE12_M_constructIJS1_EEEvDpOT_(ptr noundef nonnull align 8 dereferenceable(41) %0, ptr noundef nonnull align 8 dereferenceable(40) %1) #5 comdat align 2 personality ptr @__gxx_personality_v0 {
  %3 = alloca ptr, align 8
  %4 = alloca ptr, align 8
  store ptr %0, ptr %3, align 8, !tbaa !93
  store ptr %1, ptr %4, align 8, !tbaa !102
  %5 = load ptr, ptr %3, align 8
  %6 = getelementptr inbounds nuw %"struct.std::_Optional_payload_base", ptr %5, i32 0, i32 0
  %7 = load ptr, ptr %4, align 8, !tbaa !102
  invoke void @_ZSt10_ConstructIN4Json5ValueEJS1_EEvPT_DpOT0_(ptr noundef %6, ptr noundef nonnull align 8 dereferenceable(40) %7)
          to label %8 unwind label %10

8:                                                ; preds = %2
  %9 = getelementptr inbounds nuw %"struct.std::_Optional_payload_base", ptr %5, i32 0, i32 1
  store i8 1, ptr %9, align 8, !tbaa !88
  ret void

10:                                               ; preds = %2
  %11 = landingpad { ptr, i32 }
          catch ptr null
  %12 = extractvalue { ptr, i32 } %11, 0
  call void @__clang_call_terminate(ptr %12) #17
  unreachable
}

; Function Attrs: mustprogress nounwind uwtable
define linkonce_odr dso_local noundef nonnull align 8 dereferenceable(40) ptr @_ZNSt22_Optional_payload_baseIN4Json5ValueEE6_M_getEv(ptr noundef nonnull align 8 dereferenceable(41) %0) #5 comdat align 2 {
  %2 = alloca ptr, align 8
  store ptr %0, ptr %2, align 8, !tbaa !93
  %3 = load ptr, ptr %2, align 8
  %4 = getelementptr inbounds nuw %"struct.std::_Optional_payload_base", ptr %3, i32 0, i32 0
  ret ptr %4
}

; Function Attrs: mustprogress nounwind uwtable
define linkonce_odr dso_local void @_ZNSt22_Optional_payload_baseIN4Json5ValueEE8_StorageIS1_Lb0EEC2Ev(ptr noundef nonnull align 8 dereferenceable(40) %0) unnamed_addr #5 comdat align 2 {
  %2 = alloca ptr, align 8
  store ptr %0, ptr %2, align 8, !tbaa !100
  ret void
}

; Function Attrs: mustprogress nounwind uwtable
define linkonce_odr dso_local void @_ZNSt22_Optional_payload_baseIN4Json5ValueEEC2EbOS2_(ptr noundef nonnull align 8 dereferenceable(41) %0, i1 noundef zeroext %1, ptr noundef nonnull align 8 dereferenceable(41) %2) unnamed_addr #5 comdat align 2 {
  %4 = alloca ptr, align 8
  %5 = alloca i8, align 1
  %6 = alloca ptr, align 8
  store ptr %0, ptr %4, align 8, !tbaa !93
  %7 = zext i1 %1 to i8
  store i8 %7, ptr %5, align 1, !tbaa !97
  store ptr %2, ptr %6, align 8, !tbaa !93
  %8 = load ptr, ptr %4, align 8
  %9 = getelementptr inbounds nuw %"struct.std::_Optional_payload_base", ptr %8, i32 0, i32 0
  call void @_ZNSt22_Optional_payload_baseIN4Json5ValueEE8_StorageIS1_Lb0EEC2Ev(ptr noundef nonnull align 8 dereferenceable(40) %9) #3
  %10 = getelementptr inbounds nuw %"struct.std::_Optional_payload_base", ptr %8, i32 0, i32 1
  store i8 0, ptr %10, align 8, !tbaa !88
  %11 = load ptr, ptr %6, align 8, !tbaa !93
  %12 = getelementptr inbounds nuw %"struct.std::_Optional_payload_base", ptr %11, i32 0, i32 1
  %13 = load i8, ptr %12, align 8, !tbaa !88, !range !91, !noundef !92
  %14 = trunc i8 %13 to i1
  br i1 %14, label %15, label %18

15:                                               ; preds = %3
  %16 = load ptr, ptr %6, align 8, !tbaa !93
  %17 = call noundef nonnull align 8 dereferenceable(40) ptr @_ZNSt22_Optional_payload_baseIN4Json5ValueEE6_M_getEv(ptr noundef nonnull align 8 dereferenceable(41) %16) #3
  call void @_ZNSt22_Optional_payload_baseIN4Json5ValueEE12_M_constructIJS1_EEEvDpOT_(ptr noundef nonnull align 8 dereferenceable(41) %8, ptr noundef nonnull align 8 dereferenceable(40) %17) #3
  br label %18

18:                                               ; preds = %15, %3
  ret void
}

; Function Attrs: mustprogress nounwind uwtable
define linkonce_odr dso_local void @_ZNSt22_Optional_payload_baseIN4Json5ValueEE8_StorageIS1_Lb0EED2Ev(ptr noundef nonnull align 8 dereferenceable(40) %0) unnamed_addr #5 comdat align 2 {
  %2 = alloca ptr, align 8
  store ptr %0, ptr %2, align 8, !tbaa !100
  ret void
}

; Function Attrs: mustprogress nounwind uwtable
define linkonce_odr dso_local void @_ZNSt22_Optional_payload_baseIN4Json5ValueEE10_M_destroyEv(ptr noundef nonnull align 8 dereferenceable(41) %0) #5 comdat align 2 {
  %2 = alloca ptr, align 8
  store ptr %0, ptr %2, align 8, !tbaa !93
  %3 = load ptr, ptr %2, align 8
  %4 = getelementptr inbounds nuw %"struct.std::_Optional_payload_base", ptr %3, i32 0, i32 1
  store i8 0, ptr %4, align 8, !tbaa !88
  %5 = getelementptr inbounds nuw %"struct.std::_Optional_payload_base", ptr %3, i32 0, i32 0
  call void @_ZN4Json5ValueD1Ev(ptr noundef nonnull align 8 dereferenceable(40) %5) #3
  ret void
}

; Function Attrs: inlinehint mustprogress uwtable
define linkonce_odr dso_local void @_ZNSt17_Optional_payloadIN4Json5ValueELb1ELb0ELb0EECI2St22_Optional_payload_baseIS1_EEbOS3_IS1_E(ptr noundef nonnull align 8 dereferenceable(41) %0, i1 noundef zeroext %1, ptr noundef nonnull align 8 dereferenceable(41) %2) unnamed_addr #8 comdat align 2 {
  %4 = alloca ptr, align 8
  %5 = alloca i8, align 1
  %6 = alloca ptr, align 8
  store ptr %0, ptr %4, align 8, !tbaa !98
  %7 = zext i1 %1 to i8
  store i8 %7, ptr %5, align 1, !tbaa !97
  store ptr %2, ptr %6, align 8, !tbaa !93
  %8 = load ptr, ptr %4, align 8
  %9 = load i8, ptr %5, align 1, !tbaa !97, !range !91, !noundef !92
  %10 = trunc i8 %9 to i1
  %11 = load ptr, ptr %6, align 8
  call void @_ZNSt22_Optional_payload_baseIN4Json5ValueEEC2EbOS2_(ptr noundef nonnull align 8 dereferenceable(41) %8, i1 noundef zeroext %10, ptr noundef nonnull align 8 dereferenceable(41) %11)
  ret void
}

; Function Attrs: mustprogress nounwind uwtable
define linkonce_odr dso_local void @_ZNSt22_Optional_payload_baseIN4Json5ValueEED2Ev(ptr noundef nonnull align 8 dereferenceable(41) %0) unnamed_addr #5 comdat align 2 {
  %2 = alloca ptr, align 8
  store ptr %0, ptr %2, align 8, !tbaa !93
  %3 = load ptr, ptr %2, align 8
  %4 = getelementptr inbounds nuw %"struct.std::_Optional_payload_base", ptr %3, i32 0, i32 0
  call void @_ZNSt22_Optional_payload_baseIN4Json5ValueEE8_StorageIS1_Lb0EED2Ev(ptr noundef nonnull align 8 dereferenceable(40) %4) #3
  ret void
}

; Function Attrs: mustprogress nounwind uwtable
define linkonce_odr dso_local void @_ZNSt22_Optional_payload_baseIN4Json5ValueEE8_M_resetEv(ptr noundef nonnull align 8 dereferenceable(41) %0) #5 comdat align 2 {
  %2 = alloca ptr, align 8
  store ptr %0, ptr %2, align 8, !tbaa !93
  %3 = load ptr, ptr %2, align 8
  %4 = getelementptr inbounds nuw %"struct.std::_Optional_payload_base", ptr %3, i32 0, i32 1
  %5 = load i8, ptr %4, align 8, !tbaa !88, !range !91, !noundef !92
  %6 = trunc i8 %5 to i1
  br i1 %6, label %7, label %8

7:                                                ; preds = %1
  call void @_ZNSt22_Optional_payload_baseIN4Json5ValueEE10_M_destroyEv(ptr noundef nonnull align 8 dereferenceable(41) %3) #3
  br label %8

8:                                                ; preds = %7, %1
  ret void
}

; Function Attrs: noinline noreturn nounwind uwtable
define linkonce_odr hidden void @__clang_call_terminate(ptr noundef %0) #9 comdat {
  %2 = call ptr @__cxa_begin_catch(ptr %0) #3
  call void @_ZSt9terminatev() #17
  unreachable
}

; Function Attrs: inlinehint mustprogress uwtable
define linkonce_odr dso_local void @_ZNSt17_Optional_payloadIN4Json5ValueELb0ELb0ELb0EECI2St22_Optional_payload_baseIS1_EEbOS3_IS1_E(ptr noundef nonnull align 8 dereferenceable(41) %0, i1 noundef zeroext %1, ptr noundef nonnull align 8 dereferenceable(41) %2) unnamed_addr #8 comdat align 2 {
  %4 = alloca ptr, align 8
  %5 = alloca i8, align 1
  %6 = alloca ptr, align 8
  store ptr %0, ptr %4, align 8, !tbaa !95
  %7 = zext i1 %1 to i8
  store i8 %7, ptr %5, align 1, !tbaa !97
  store ptr %2, ptr %6, align 8, !tbaa !93
  %8 = load ptr, ptr %4, align 8
  %9 = load i8, ptr %5, align 1, !tbaa !97, !range !91, !noundef !92
  %10 = trunc i8 %9 to i1
  %11 = load ptr, ptr %6, align 8
  call void @_ZNSt17_Optional_payloadIN4Json5ValueELb1ELb0ELb0EECI2St22_Optional_payload_baseIS1_EEbOS3_IS1_E(ptr noundef nonnull align 8 dereferenceable(41) %8, i1 noundef zeroext %10, ptr noundef nonnull align 8 dereferenceable(41) %11)
  ret void
}

; Function Attrs: mustprogress nounwind uwtable
define linkonce_odr dso_local void @_ZNSt17_Optional_payloadIN4Json5ValueELb0ELb0ELb0EED2Ev(ptr noundef nonnull align 8 dereferenceable(41) %0) unnamed_addr #5 comdat align 2 {
  %2 = alloca ptr, align 8
  store ptr %0, ptr %2, align 8, !tbaa !95
  %3 = load ptr, ptr %2, align 8
  call void @_ZNSt22_Optional_payload_baseIN4Json5ValueEE8_M_resetEv(ptr noundef nonnull align 8 dereferenceable(41) %3) #3
  call void @_ZNSt22_Optional_payload_baseIN4Json5ValueEED2Ev(ptr noundef nonnull align 8 dereferenceable(41) %3) #3
  ret void
}

; Function Attrs: mustprogress nounwind uwtable
define linkonce_odr dso_local void @_ZNSt14_Optional_baseIN4Json5ValueELb0ELb0EEC2EOS2_(ptr noundef nonnull align 8 dereferenceable(48) %0, ptr noundef nonnull align 8 dereferenceable(48) %1) unnamed_addr #5 comdat align 2 personality ptr @__gxx_personality_v0 {
  %3 = alloca ptr, align 8
  %4 = alloca ptr, align 8
  store ptr %0, ptr %3, align 8, !tbaa !62
  store ptr %1, ptr %4, align 8, !tbaa !62
  %5 = load ptr, ptr %3, align 8
  %6 = getelementptr inbounds nuw %"struct.std::_Optional_base", ptr %5, i32 0, i32 0
  %7 = load ptr, ptr %4, align 8, !tbaa !62
  %8 = getelementptr inbounds nuw %"struct.std::_Optional_base", ptr %7, i32 0, i32 0
  %9 = getelementptr inbounds nuw %"struct.std::_Optional_payload_base", ptr %8, i32 0, i32 1
  %10 = load i8, ptr %9, align 8, !tbaa !88, !range !91, !noundef !92
  %11 = trunc i8 %10 to i1
  %12 = load ptr, ptr %4, align 8, !tbaa !62
  %13 = getelementptr inbounds nuw %"struct.std::_Optional_base", ptr %12, i32 0, i32 0
  invoke void @_ZNSt17_Optional_payloadIN4Json5ValueELb0ELb0ELb0EECI2St22_Optional_payload_baseIS1_EEbOS3_IS1_E(ptr noundef nonnull align 8 dereferenceable(41) %6, i1 noundef zeroext %11, ptr noundef nonnull align 8 dereferenceable(41) %13)
          to label %14 unwind label %15

14:                                               ; preds = %2
  ret void

15:                                               ; preds = %2
  %16 = landingpad { ptr, i32 }
          catch ptr null
  %17 = extractvalue { ptr, i32 } %16, 0
  call void @__clang_call_terminate(ptr %17) #17
  unreachable
}

; Function Attrs: inlinehint mustprogress nounwind uwtable
define linkonce_odr dso_local void @_ZNSt14_Optional_baseIN4Json5ValueELb0ELb0EED2Ev(ptr noundef nonnull align 8 dereferenceable(48) %0) unnamed_addr #7 comdat align 2 {
  %2 = alloca ptr, align 8
  store ptr %0, ptr %2, align 8, !tbaa !62
  %3 = load ptr, ptr %2, align 8
  %4 = getelementptr inbounds nuw %"struct.std::_Optional_base", ptr %3, i32 0, i32 0
  call void @_ZNSt17_Optional_payloadIN4Json5ValueELb0ELb0ELb0EED2Ev(ptr noundef nonnull align 8 dereferenceable(41) %4) #3
  ret void
}

; Function Attrs: inlinehint mustprogress nounwind uwtable
define linkonce_odr dso_local void @_ZNSt8optionalIN4Json5ValueEEC2EOS2_(ptr noundef nonnull align 8 dereferenceable(48) %0, ptr noundef nonnull align 8 dereferenceable(48) %1) unnamed_addr #7 comdat align 2 {
  %3 = alloca ptr, align 8
  %4 = alloca ptr, align 8
  store ptr %0, ptr %3, align 8, !tbaa !31
  store ptr %1, ptr %4, align 8, !tbaa !31
  %5 = load ptr, ptr %3, align 8
  %6 = load ptr, ptr %4, align 8, !tbaa !31
  call void @_ZNSt14_Optional_baseIN4Json5ValueELb0ELb0EEC2EOS2_(ptr noundef nonnull align 8 dereferenceable(48) %5, ptr noundef nonnull align 8 dereferenceable(48) %6) #3
  ret void
}

; Function Attrs: mustprogress uwtable
define dso_local void @_ZN23cmMakefileProfilingData4RAIIC2ERS_RKNSt7__cxx1112basic_stringIcSt11char_traitsIcESaIcEEES9_St8optionalIN4Json5ValueEE(ptr noundef nonnull align 8 dereferenceable(8) %0, ptr noundef nonnull align 8 dereferenceable(520) %1, ptr noundef nonnull align 8 dereferenceable(32) %2, ptr noundef nonnull align 8 dereferenceable(32) %3, ptr noundef %4) unnamed_addr #4 align 2 personality ptr @__gxx_personality_v0 {
  %6 = alloca ptr, align 8
  %7 = alloca ptr, align 8
  %8 = alloca ptr, align 8
  %9 = alloca ptr, align 8
  %10 = alloca ptr, align 8
  %11 = alloca %"class.std::optional", align 8
  %12 = alloca ptr, align 8
  %13 = alloca i32, align 4
  store ptr %0, ptr %6, align 8, !tbaa !58
  store ptr %1, ptr %7, align 8, !tbaa !4
  store ptr %2, ptr %8, align 8, !tbaa !9
  store ptr %3, ptr %9, align 8, !tbaa !9
  store ptr %4, ptr %10, align 8, !tbaa !31
  %14 = load ptr, ptr %6, align 8
  %15 = getelementptr inbounds nuw %"class.cmMakefileProfilingData::RAII", ptr %14, i32 0, i32 0
  %16 = load ptr, ptr %7, align 8, !tbaa !4
  store ptr %16, ptr %15, align 8, !tbaa !60
  %17 = getelementptr inbounds nuw %"class.cmMakefileProfilingData::RAII", ptr %14, i32 0, i32 0
  %18 = load ptr, ptr %17, align 8, !tbaa !60
  %19 = load ptr, ptr %8, align 8, !tbaa !9
  %20 = load ptr, ptr %9, align 8, !tbaa !9
  call void @_ZNSt8optionalIN4Json5ValueEEC2EOS2_(ptr noundef nonnull align 8 dereferenceable(48) %11, ptr noundef nonnull align 8 dereferenceable(48) %4) #3
  invoke void @_ZN23cmMakefileProfilingData10StartEntryERKNSt7__cxx1112basic_stringIcSt11char_traitsIcESaIcEEES7_St8optionalIN4Json5ValueEE(ptr noundef nonnull align 8 dereferenceable(520) %18, ptr noundef nonnull align 8 dereferenceable(32) %19, ptr noundef nonnull align 8 dereferenceable(32) %20, ptr noundef %11)
          to label %21 unwind label %22

21:                                               ; preds = %5
  call void @_ZNSt14_Optional_baseIN4Json5ValueELb0ELb0EED2Ev(ptr noundef nonnull align 8 dereferenceable(48) %11) #3
  ret void

22:                                               ; preds = %5
  %23 = landingpad { ptr, i32 }
          cleanup
  %24 = extractvalue { ptr, i32 } %23, 0
  store ptr %24, ptr %12, align 8
  %25 = extractvalue { ptr, i32 } %23, 1
  store i32 %25, ptr %13, align 4
  call void @_ZNSt14_Optional_baseIN4Json5ValueELb0ELb0EED2Ev(ptr noundef nonnull align 8 dereferenceable(48) %11) #3
  br label %26

26:                                               ; preds = %22
  %27 = load ptr, ptr %12, align 8
  %28 = load i32, ptr %13, align 4
  %29 = insertvalue { ptr, i32 } poison, ptr %27, 0
  %30 = insertvalue { ptr, i32 } %29, i32 %28, 1
  resume { ptr, i32 } %30
}