; Function Attrs: mustprogress uwtable
define dso_local void @_ZN23cmMakefileProfilingData4RAIIC2ERS_RKNSt7__cxx1112basic_stringIcSt11char_traitsIcESaIcEEES9_St8optionalIN4Json5ValueEE(ptr noundef nonnull writeonly align 8 captures(none) dereferenceable(8) initializes((0, 8)) %0, ptr noundef nonnull align 8 dereferenceable(520) %1, ptr noundef nonnull align 8 dereferenceable(32) %2, ptr noundef nonnull align 8 dereferenceable(32) %3, ptr noundef %4) unnamed_addr #3 align 2 personality ptr @__gxx_personality_v0 {
  %6 = alloca %"class.std::optional", align 8
  store ptr %1, ptr %0, align 8, !tbaa !54
  %7 = getelementptr inbounds nuw i8, ptr %4, i64 40
  %8 = getelementptr inbounds nuw i8, ptr %6, i64 40
  store i8 0, ptr %8, align 8, !tbaa !32
  %9 = load i8, ptr %7, align 8, !tbaa !32, !range !35, !noundef !36
  %10 = trunc nuw i8 %9 to i1
  br i1 %10, label %11, label %_ZNSt8optionalIN4Json5ValueEEC2EOS2_.exit

11:                                               ; preds = %5
  call void @_ZN4Json5ValueC1EOS0_(ptr noundef nonnull align 8 dereferenceable(48) %6, ptr noundef nonnull align 8 dereferenceable(48) %4) #18
  store i8 1, ptr %8, align 8, !tbaa !32
  br label %_ZNSt8optionalIN4Json5ValueEEC2EOS2_.exit

_ZNSt8optionalIN4Json5ValueEEC2EOS2_.exit:        ; preds = %5, %11
  invoke void @_ZN23cmMakefileProfilingData10StartEntryERKNSt7__cxx1112basic_stringIcSt11char_traitsIcESaIcEEES7_St8optionalIN4Json5ValueEE(ptr noundef nonnull align 8 dereferenceable(520) %1, ptr noundef nonnull align 8 dereferenceable(32) %2, ptr noundef nonnull align 8 dereferenceable(32) %3, ptr noundef nonnull %6)
          to label %12 unwind label %16

12:                                               ; preds = %_ZNSt8optionalIN4Json5ValueEEC2EOS2_.exit
  %13 = load i8, ptr %8, align 8, !tbaa !32, !range !35, !noundef !36
  %14 = trunc nuw i8 %13 to i1
  br i1 %14, label %15, label %_ZNSt14_Optional_baseIN4Json5ValueELb0ELb0EED2Ev.exit

15:                                               ; preds = %12
  store i8 0, ptr %8, align 8, !tbaa !32
  call void @_ZN4Json5ValueD1Ev(ptr noundef nonnull align 8 dereferenceable(48) %6) #18
  br label %_ZNSt14_Optional_baseIN4Json5ValueELb0ELb0EED2Ev.exit

_ZNSt14_Optional_baseIN4Json5ValueELb0ELb0EED2Ev.exit: ; preds = %12, %15
  ret void

16:                                               ; preds = %_ZNSt8optionalIN4Json5ValueEEC2EOS2_.exit
  %17 = landingpad { ptr, i32 }
          cleanup
  %18 = load i8, ptr %8, align 8, !tbaa !32, !range !35, !noundef !36
  %19 = trunc nuw i8 %18 to i1
  br i1 %19, label %20, label %_ZNSt14_Optional_baseIN4Json5ValueELb0ELb0EED2Ev.exit5

20:                                               ; preds = %16
  store i8 0, ptr %8, align 8, !tbaa !32
  call void @_ZN4Json5ValueD1Ev(ptr noundef nonnull align 8 dereferenceable(48) %6) #18
  br label %_ZNSt14_Optional_baseIN4Json5ValueELb0ELb0EED2Ev.exit5

_ZNSt14_Optional_baseIN4Json5ValueELb0ELb0EED2Ev.exit5: ; preds = %16, %20
  resume { ptr, i32 } %17
}